target datalayout = "e-m:e-p270:32:32-p271:32:32-p272:64:64-i64:64-i128:128-f80:128-n8:16:32:64-S128"
target triple = "x86_64-pc-linux-gnu"

; Function Attrs: mustprogress nounwind uwtable
define noundef i64 @_ZN6casadi16SparsityInternal13postorder_dfsExxPxPKxS1_S1_(i64 noundef %0, i64 noundef %1, ptr noundef %2, ptr noundef %3, ptr noundef %4, ptr noundef %5) #4 align 2 {
  %7 = alloca i64, align 8
  %8 = alloca i64, align 8
  %9 = alloca ptr, align 8
  %10 = alloca ptr, align 8
  %11 = alloca ptr, align 8
  %12 = alloca ptr, align 8
  %13 = alloca i64, align 8
  %14 = alloca i64, align 8
  %15 = alloca i64, align 8
  store i64 %0, ptr %7, align 8
  store i64 %1, ptr %8, align 8
  store ptr %2, ptr %9, align 8
  store ptr %3, ptr %10, align 8
  store ptr %4, ptr %11, align 8
  store ptr %5, ptr %12, align 8
  store i64 0, ptr %15, align 8
  %16 = load i64, ptr %7, align 8
  %17 = load ptr, ptr %12, align 8
  %18 = getelementptr inbounds i64, ptr %17, i64 0
  store i64 %16, ptr %18, align 8
  br label %19

19:                                               ; preds = %54, %6
  %20 = load i64, ptr %15, align 8
  %21 = icmp sge i64 %20, 0
  br i1 %21, label %22, label %55

22:                                               ; preds = %19
  %23 = load ptr, ptr %12, align 8
  %24 = load i64, ptr %15, align 8
  %25 = getelementptr inbounds i64, ptr %23, i64 %24
  %26 = load i64, ptr %25, align 8
  store i64 %26, ptr %14, align 8
  %27 = load ptr, ptr %9, align 8
  %28 = load i64, ptr %14, align 8
  %29 = getelementptr inbounds i64, ptr %27, i64 %28
  %30 = load i64, ptr %29, align 8
  store i64 %30, ptr %13, align 8
  %31 = load i64, ptr %13, align 8
  %32 = icmp eq i64 %31, -1
  br i1 %32, label %33, label %41

33:                                               ; preds = %22
  %34 = load i64, ptr %15, align 8
  %35 = add nsw i64 %34, -1
  store i64 %35, ptr %15, align 8
  %36 = load i64, ptr %14, align 8
  %37 = load ptr, ptr %11, align 8
  %38 = load i64, ptr %8, align 8
  %39 = add nsw i64 %38, 1
  store i64 %39, ptr %8, align 8
  %40 = getelementptr inbounds i64, ptr %37, i64 %38
  store i64 %36, ptr %40, align 8
  br label %54

41:                                               ; preds = %22
  %42 = load ptr, ptr %10, align 8
  %43 = load i64, ptr %13, align 8
  %44 = getelementptr inbounds i64, ptr %42, i64 %43
  %45 = load i64, ptr %44, align 8
  %46 = load ptr, ptr %9, align 8
  %47 = load i64, ptr %14, align 8
  %48 = getelementptr inbounds i64, ptr %46, i64 %47
  store i64 %45, ptr %48, align 8
  %49 = load i64, ptr %13, align 8
  %50 = load ptr, ptr %12, align 8
  %51 = load i64, ptr %15, align 8
  %52 = add nsw i64 %51, 1
  store i64 %52, ptr %15, align 8
  %53 = getelementptr inbounds i64, ptr %50, i64 %52
  store i64 %49, ptr %53, align 8
  br label %54

54:                                               ; preds = %41, %33
  br label %19, !llvm.loop !9

55:                                               ; preds = %19
  %56 = load i64, ptr %8, align 8
  ret i64 %56
}

; Function Attrs: mustprogress nounwind uwtable
define void @_ZN6casadi16SparsityInternal9postorderEPKxxPxS3_(ptr noundef %0, i64 noundef %1, ptr noundef %2, ptr noundef %3) #4 align 2 {
  %5 = alloca ptr, align 8
  %6 = alloca i64, align 8
  %7 = alloca ptr, align 8
  %8 = alloca ptr, align 8
  %9 = alloca i64, align 8
  %10 = alloca i64, align 8
  %11 = alloca ptr, align 8
  %12 = alloca ptr, align 8
  %13 = alloca ptr, align 8
  store ptr %0, ptr %5, align 8
  store i64 %1, ptr %6, align 8
  store ptr %2, ptr %7, align 8
  store ptr %3, ptr %8, align 8
  store i64 0, ptr %10, align 8
  %14 = load ptr, ptr %8, align 8
  store ptr %14, ptr %11, align 8
  %15 = load i64, ptr %6, align 8
  %16 = load ptr, ptr %8, align 8
  %17 = getelementptr inbounds i64, ptr %16, i64 %15
  store ptr %17, ptr %8, align 8
  %18 = load ptr, ptr %8, align 8
  store ptr %18, ptr %12, align 8
  %19 = load i64, ptr %6, align 8
  %20 = load ptr, ptr %8, align 8
  %21 = getelementptr inbounds i64, ptr %20, i64 %19
  store ptr %21, ptr %8, align 8
  %22 = load ptr, ptr %8, align 8
  store ptr %22, ptr %13, align 8
  %23 = load i64, ptr %6, align 8
  %24 = load ptr, ptr %8, align 8
  %25 = getelementptr inbounds i64, ptr %24, i64 %23
  store ptr %25, ptr %8, align 8
  store i64 0, ptr %9, align 8
  br label %26

26:                                               ; preds = %34, %4
  %27 = load i64, ptr %9, align 8
  %28 = load i64, ptr %6, align 8
  %29 = icmp slt i64 %27, %28
  br i1 %29, label %30, label %37

30:                                               ; preds = %26
  %31 = load ptr, ptr %11, align 8
  %32 = load i64, ptr %9, align 8
  %33 = getelementptr inbounds i64, ptr %31, i64 %32
  store i64 -1, ptr %33, align 8
  br label %34

34:                                               ; preds = %30
  %35 = load i64, ptr %9, align 8
  %36 = add nsw i64 %35, 1
  store i64 %36, ptr %9, align 8
  br label %26, !llvm.loop !10

37:                                               ; preds = %26
  %38 = load i64, ptr %6, align 8
  %39 = sub nsw i64 %38, 1
  store i64 %39, ptr %9, align 8
  br label %40

40:                                               ; preds = %68, %37
  %41 = load i64, ptr %9, align 8
  %42 = icmp sge i64 %41, 0
  br i1 %42, label %43, label %71

43:                                               ; preds = %40
  %44 = load ptr, ptr %5, align 8
  %45 = load i64, ptr %9, align 8
  %46 = getelementptr inbounds i64, ptr %44, i64 %45
  %47 = load i64, ptr %46, align 8
  %48 = icmp ne i64 %47, -1
  br i1 %48, label %49, label %67

49:                                               ; preds = %43
  %50 = load ptr, ptr %11, align 8
  %51 = load ptr, ptr %5, align 8
  %52 = load i64, ptr %9, align 8
  %53 = getelementptr inbounds i64, ptr %51, i64 %52
  %54 = load i64, ptr %53, align 8
  %55 = getelementptr inbounds i64, ptr %50, i64 %54
  %56 = load i64, ptr %55, align 8
  %57 = load ptr, ptr %12, align 8
  %58 = load i64, ptr %9, align 8
  %59 = getelementptr inbounds i64, ptr %57, i64 %58
  store i64 %56, ptr %59, align 8
  %60 = load i64, ptr %9, align 8
  %61 = load ptr, ptr %11, align 8
  %62 = load ptr, ptr %5, align 8
  %63 = load i64, ptr %9, align 8
  %64 = getelementptr inbounds i64, ptr %62, i64 %63
  %65 = load i64, ptr %64, align 8
  %66 = getelementptr inbounds i64, ptr %61, i64 %65
  store i64 %60, ptr %66, align 8
  br label %67

67:                                               ; preds = %49, %43
  br label %68

68:                                               ; preds = %67
  %69 = load i64, ptr %9, align 8
  %70 = add nsw i64 %69, -1
  store i64 %70, ptr %9, align 8
  br label %40, !llvm.loop !11

71:                                               ; preds = %40
  store i64 0, ptr %9, align 8
  br label %72

72:                                               ; preds = %91, %71
  %73 = load i64, ptr %9, align 8
  %74 = load i64, ptr %6, align 8
  %75 = icmp slt i64 %73, %74
  br i1 %75, label %76, label %94

76:                                               ; preds = %72
  %77 = load ptr, ptr %5, align 8
  %78 = load i64, ptr %9, align 8
  %79 = getelementptr inbounds i64, ptr %77, i64 %78
  %80 = load i64, ptr %79, align 8
  %81 = icmp eq i64 %80, -1
  br i1 %81, label %82, label %90

82:                                               ; preds = %76
  %83 = load i64, ptr %9, align 8
  %84 = load i64, ptr %10, align 8
  %85 = load ptr, ptr %11, align 8
  %86 = load ptr, ptr %12, align 8
  %87 = load ptr, ptr %7, align 8
  %88 = load ptr, ptr %13, align 8
  %89 = call noundef i64 @_ZN6casadi16SparsityInternal13postorder_dfsExxPxPKxS1_S1_(i64 noundef %83, i64 noundef %84, ptr noundef %85, ptr noundef %86, ptr noundef %87, ptr noundef %88)
  store i64 %89, ptr %10, align 8
  br label %90

90:                                               ; preds = %82, %76
  br label %91

91:                                               ; preds = %90
  %92 = load i64, ptr %9, align 8
  %93 = add nsw i64 %92, 1
  store i64 %93, ptr %9, align 8
  br label %72, !llvm.loop !12

94:                                               ; preds = %72
  ret void
}

; Function Attrs: mustprogress nounwind uwtable
define void @_ZN6casadi16SparsityInternal5etreeEPKxPxS3_x(ptr noundef %0, ptr noundef %1, ptr noundef %2, i64 noundef %3) #4 align 2 {
  %5 = alloca ptr, align 8
  %6 = alloca ptr, align 8
  %7 = alloca ptr, align 8
  %8 = alloca i64, align 8
  %9 = alloca i64, align 8
  %10 = alloca i64, align 8
  %11 = alloca i64, align 8
  %12 = alloca i64, align 8
  %13 = alloca i64, align 8
  %14 = alloca i64, align 8
  %15 = alloca ptr, align 8
  %16 = alloca ptr, align 8
  %17 = alloca ptr, align 8
  %18 = alloca ptr, align 8
  store ptr %0, ptr %5, align 8
  store ptr %1, ptr %6, align 8
  store ptr %2, ptr %7, align 8
  store i64 %3, ptr %8, align 8
  %19 = load ptr, ptr %5, align 8
  %20 = getelementptr inbounds i64, ptr %19, i32 1
  store ptr %20, ptr %5, align 8
  %21 = load i64, ptr %19, align 8
  store i64 %21, ptr %13, align 8
  %22 = load ptr, ptr %5, align 8
  %23 = getelementptr inbounds i64, ptr %22, i32 1
  store ptr %23, ptr %5, align 8
  %24 = load i64, ptr %22, align 8
  store i64 %24, ptr %14, align 8
  %25 = load ptr, ptr %5, align 8
  store ptr %25, ptr %15, align 8
  %26 = load ptr, ptr %5, align 8
  %27 = load i64, ptr %14, align 8
  %28 = getelementptr inbounds i64, ptr %26, i64 %27
  %29 = getelementptr inbounds i64, ptr %28, i64 1
  store ptr %29, ptr %16, align 8
  %30 = load ptr, ptr %7, align 8
  store ptr %30, ptr %17, align 8
  %31 = load i64, ptr %8, align 8
  %32 = icmp ne i64 %31, 0
  br i1 %32, label %33, label %49

33:                                               ; preds = %4
  %34 = load ptr, ptr %7, align 8
  %35 = load i64, ptr %14, align 8
  %36 = getelementptr inbounds i64, ptr %34, i64 %35
  store ptr %36, ptr %18, align 8
  store i64 0, ptr %9, align 8
  br label %37

37:                                               ; preds = %45, %33
  %38 = load i64, ptr %9, align 8
  %39 = load i64, ptr %13, align 8
  %40 = icmp slt i64 %38, %39
  br i1 %40, label %41, label %48

41:                                               ; preds = %37
  %42 = load ptr, ptr %18, align 8
  %43 = load i64, ptr %9, align 8
  %44 = getelementptr inbounds i64, ptr %42, i64 %43
  store i64 -1, ptr %44, align 8
  br label %45

45:                                               ; preds = %41
  %46 = load i64, ptr %9, align 8
  %47 = add nsw i64 %46, 1
  store i64 %47, ptr %9, align 8
  br label %37, !llvm.loop !4

48:                                               ; preds = %37
  br label %49

49:                                               ; preds = %48, %4
  store i64 0, ptr %10, align 8
  br label %50

50:                                               ; preds = %129, %49
  %51 = load i64, ptr %10, align 8
  %52 = load i64, ptr %14, align 8
  %53 = icmp slt i64 %51, %52
  br i1 %53, label %54, label %132

54:                                               ; preds = %50
  %55 = load ptr, ptr %6, align 8
  %56 = load i64, ptr %10, align 8
  %57 = getelementptr inbounds i64, ptr %55, i64 %56
  store i64 -1, ptr %57, align 8
  %58 = load ptr, ptr %17, align 8
  %59 = load i64, ptr %10, align 8
  %60 = getelementptr inbounds i64, ptr %58, i64 %59
  store i64 -1, ptr %60, align 8
  %61 = load ptr, ptr %15, align 8
  %62 = load i64, ptr %10, align 8
  %63 = getelementptr inbounds i64, ptr %61, i64 %62
  %64 = load i64, ptr %63, align 8
  store i64 %64, ptr %11, align 8
  br label %65

65:                                               ; preds = %125, %54
  %66 = load i64, ptr %11, align 8
  %67 = load ptr, ptr %15, align 8
  %68 = load i64, ptr %10, align 8
  %69 = add nsw i64 %68, 1
  %70 = getelementptr inbounds i64, ptr %67, i64 %69
  %71 = load i64, ptr %70, align 8
  %72 = icmp slt i64 %66, %71
  br i1 %72, label %73, label %128

73:                                               ; preds = %65
  %74 = load ptr, ptr %16, align 8
  %75 = load i64, ptr %11, align 8
  %76 = getelementptr inbounds i64, ptr %74, i64 %75
  %77 = load i64, ptr %76, align 8
  store i64 %77, ptr %9, align 8
  %78 = load i64, ptr %8, align 8
  %79 = icmp ne i64 %78, 0
  br i1 %79, label %80, label %85

80:                                               ; preds = %73
  %81 = load ptr, ptr %18, align 8
  %82 = load i64, ptr %9, align 8
  %83 = getelementptr inbounds i64, ptr %81, i64 %82
  %84 = load i64, ptr %83, align 8
  store i64 %84, ptr %9, align 8
  br label %85

85:                                               ; preds = %80, %73
  br label %86

86:                                               ; preds = %111, %85
  %87 = load i64, ptr %9, align 8
  %88 = icmp ne i64 %87, -1
  br i1 %88, label %89, label %93

89:                                               ; preds = %86
  %90 = load i64, ptr %9, align 8
  %91 = load i64, ptr %10, align 8
  %92 = icmp slt i64 %90, %91
  br label %93

93:                                               ; preds = %89, %86
  %94 = phi i1 [ false, %86 ], [ %92, %89 ]
  br i1 %94, label %95, label %113

95:                                               ; preds = %93
  %96 = load ptr, ptr %17, align 8
  %97 = load i64, ptr %9, align 8
  %98 = getelementptr inbounds i64, ptr %96, i64 %97
  %99 = load i64, ptr %98, align 8
  store i64 %99, ptr %12, align 8
  %100 = load i64, ptr %10, align 8
  %101 = load ptr, ptr %17, align 8
  %102 = load i64, ptr %9, align 8
  %103 = getelementptr inbounds i64, ptr %101, i64 %102
  store i64 %100, ptr %103, align 8
  %104 = load i64, ptr %12, align 8
  %105 = icmp eq i64 %104, -1
  br i1 %105, label %106, label %111

106:                                              ; preds = %95
  %107 = load i64, ptr %10, align 8
  %108 = load ptr, ptr %6, align 8
  %109 = load i64, ptr %9, align 8
  %110 = getelementptr inbounds i64, ptr %108, i64 %109
  store i64 %107, ptr %110, align 8
  br label %111

111:                                              ; preds = %106, %95
  %112 = load i64, ptr %12, align 8
  store i64 %112, ptr %9, align 8
  br label %86, !llvm.loop !6

113:                                              ; preds = %93
  %114 = load i64, ptr %8, align 8
  %115 = icmp ne i64 %114, 0
  br i1 %115, label %116, label %124

116:                                              ; preds = %113
  %117 = load i64, ptr %10, align 8
  %118 = load ptr, ptr %18, align 8
  %119 = load ptr, ptr %16, align 8
  %120 = load i64, ptr %11, align 8
  %121 = getelementptr inbounds i64, ptr %119, i64 %120
  %122 = load i64, ptr %121, align 8
  %123 = getelementptr inbounds i64, ptr %118, i64 %122
  store i64 %117, ptr %123, align 8
  br label %124

124:                                              ; preds = %116, %113
  br label %125

125:                                              ; preds = %124
  %126 = load i64, ptr %11, align 8
  %127 = add nsw i64 %126, 1
  store i64 %127, ptr %11, align 8
  br label %65, !llvm.loop !7

128:                                              ; preds = %65
  br label %129

129:                                              ; preds = %128
  %130 = load i64, ptr %10, align 8
  %131 = add nsw i64 %130, 1
  store i64 %131, ptr %10, align 8
  br label %50, !llvm.loop !8

132:                                              ; preds = %50
  ret void
}

; Function Attrs: mustprogress uwtable
define void @_ZN6casadi16SparsityInternal7qr_initEPKxS2_PxS3_S3_S3_S3_S3_S3_(ptr noundef %0, ptr noundef %1, ptr noundef %2, ptr noundef %3, ptr noundef %4, ptr noundef %5, ptr noundef %6, ptr noundef %7, ptr noundef %8) #5 align 2 {
  %10 = alloca ptr, align 8
  %11 = alloca ptr, align 8
  %12 = alloca ptr, align 8
  %13 = alloca ptr, align 8
  %14 = alloca ptr, align 8
  %15 = alloca ptr, align 8
  %16 = alloca ptr, align 8
  %17 = alloca ptr, align 8
  %18 = alloca ptr, align 8
  %19 = alloca i64, align 8
  %20 = alloca ptr, align 8
  store ptr %0, ptr %10, align 8
  store ptr %1, ptr %11, align 8
  store ptr %2, ptr %12, align 8
  store ptr %3, ptr %13, align 8
  store ptr %4, ptr %14, align 8
  store ptr %5, ptr %15, align 8
  store ptr %6, ptr %16, align 8
  store ptr %7, ptr %17, align 8
  store ptr %8, ptr %18, align 8
  %21 = load ptr, ptr %10, align 8
  %22 = getelementptr inbounds i64, ptr %21, i64 1
  %23 = load i64, ptr %22, align 8
  store i64 %23, ptr %19, align 8
  %24 = load ptr, ptr %10, align 8
  %25 = load ptr, ptr %13, align 8
  %26 = load ptr, ptr %18, align 8
  call void @_ZN6casadi16SparsityInternal5etreeEPKxPxS3_x(ptr noundef %24, ptr noundef %25, ptr noundef %26, i64 noundef 1)
  %27 = load ptr, ptr %18, align 8
  store ptr %27, ptr %20, align 8
  %28 = load i64, ptr %19, align 8
  %29 = load ptr, ptr %18, align 8
  %30 = getelementptr inbounds i64, ptr %29, i64 %28
  store ptr %30, ptr %18, align 8
  %31 = load ptr, ptr %13, align 8
  %32 = load i64, ptr %19, align 8
  %33 = load ptr, ptr %20, align 8
  %34 = load ptr, ptr %18, align 8
  call void @_ZN6casadi16SparsityInternal9postorderEPKxxPxS3_(ptr noundef %31, i64 noundef %32, ptr noundef %33, ptr noundef %34)
  %35 = load ptr, ptr %11, align 8
  %36 = load ptr, ptr %13, align 8
  %37 = load ptr, ptr %20, align 8
  %38 = load ptr, ptr %18, align 8
  %39 = load ptr, ptr %18, align 8
  %40 = load i64, ptr %19, align 8
  %41 = getelementptr inbounds i64, ptr %39, i64 %40
  %42 = call noundef i64 @_ZN6casadi16SparsityInternal9qr_countsEPKxS2_S2_PxS3_(ptr noundef %35, ptr noundef %36, ptr noundef %37, ptr noundef %38, ptr noundef %41)
  %43 = load ptr, ptr %17, align 8
  store i64 %42, ptr %43, align 8
  %44 = load ptr, ptr %10, align 8
  %45 = load ptr, ptr %14, align 8
  %46 = load ptr, ptr %12, align 8
  %47 = load ptr, ptr %13, align 8
  %48 = load ptr, ptr %15, align 8
  %49 = load ptr, ptr %18, align 8
  %50 = call noundef i64 @_ZN6casadi16SparsityInternal6qr_nnzEPKxPxS3_S2_S3_S3_(ptr noundef %44, ptr noundef %45, ptr noundef %46, ptr noundef %47, ptr noundef %48, ptr noundef %49)
  %51 = load ptr, ptr %16, align 8
  store i64 %50, ptr %51, align 8
  ret void
}