; Function Attrs: mustprogress nofree norecurse nosync nounwind memory(readwrite, inaccessiblemem: none) uwtable
define void @_ZN6casadi16SparsityInternal7qr_initEPKxS2_PxS3_S3_S3_S3_S3_S3_(ptr nocapture noundef readonly %0, ptr nocapture noundef readonly %1, ptr nocapture noundef %2, ptr nocapture noundef %3, ptr nocapture noundef %4, ptr noundef %5, ptr nocapture noundef writeonly %6, ptr nocapture noundef writeonly %7, ptr nocapture noundef %8) local_unnamed_addr #4 align 2 {
  %10 = getelementptr inbounds i8, ptr %0, i64 8
  %11 = load i64, ptr %10, align 8
  %12 = load i64, ptr %0, align 8
  %13 = getelementptr inbounds i8, ptr %0, i64 16
  %14 = getelementptr inbounds i64, ptr %13, i64 %11
  %15 = getelementptr inbounds i8, ptr %14, i64 8
  %16 = getelementptr i64, ptr %8, i64 %11
  %17 = icmp sgt i64 %12, 0
  br i1 %17, label %.lr.ph.preheader.i, label %.loopexit52.i

.lr.ph.preheader.i:                               ; preds = %9
  %18 = shl nuw i64 %12, 3
  tail call void @llvm.memset.p0.i64(ptr align 8 %16, i8 -1, i64 %18, i1 false)
  br label %.loopexit52.i

.loopexit52.i:                                    ; preds = %.lr.ph.preheader.i, %9
  %19 = icmp sgt i64 %11, 0
  br i1 %19, label %.lr.ph61.split.i, label %_ZN6casadi16SparsityInternal5etreeEPKxPxS3_x.exit.thread

_ZN6casadi16SparsityInternal5etreeEPKxPxS3_x.exit.thread: ; preds = %.loopexit52.i
  %20 = getelementptr inbounds i64, ptr %16, i64 %11
  br label %_ZN6casadi16SparsityInternal9postorderEPKxxPxS3_.exit

.loopexit.i:                                      ; preds = %._crit_edge.i, %.lr.ph61.split.i
  %exitcond.not.i = icmp eq i64 %25, %11
  br i1 %exitcond.not.i, label %_ZN6casadi16SparsityInternal5etreeEPKxPxS3_x.exit, label %.lr.ph61.split.i, !llvm.loop !4

.lr.ph61.split.i:                                 ; preds = %.loopexit52.i, %.loopexit.i
  %.05059.i = phi i64 [ %25, %.loopexit.i ], [ 0, %.loopexit52.i ]
  %21 = getelementptr inbounds i64, ptr %3, i64 %.05059.i
  store i64 -1, ptr %21, align 8
  %22 = getelementptr inbounds i64, ptr %8, i64 %.05059.i
  store i64 -1, ptr %22, align 8
  %23 = getelementptr inbounds i64, ptr %13, i64 %.05059.i
  %24 = load i64, ptr %23, align 8
  %25 = add nuw nsw i64 %.05059.i, 1
  %26 = getelementptr inbounds i64, ptr %13, i64 %25
  %27 = load i64, ptr %26, align 8
  %28 = icmp slt i64 %24, %27
  br i1 %28, label %.lr.ph58.i, label %.loopexit.i

.lr.ph58.i:                                       ; preds = %.lr.ph61.split.i, %._crit_edge.i
  %.05156.i = phi i64 [ %44, %._crit_edge.i ], [ %24, %.lr.ph61.split.i ]
  %29 = getelementptr inbounds i64, ptr %15, i64 %.05156.i
  %30 = load i64, ptr %29, align 8
  %31 = getelementptr inbounds i64, ptr %16, i64 %30
  %32 = load i64, ptr %31, align 8
  %33 = icmp ne i64 %32, -1
  %34 = icmp slt i64 %32, %.05059.i
  %35 = and i1 %33, %34
  br i1 %35, label %.lr.ph55.i, label %._crit_edge.i

.lr.ph55.i:                                       ; preds = %.lr.ph58.i, %40
  %.254.i = phi i64 [ %37, %40 ], [ %32, %.lr.ph58.i ]
  %36 = getelementptr inbounds i64, ptr %8, i64 %.254.i
  %37 = load i64, ptr %36, align 8
  store i64 %.05059.i, ptr %36, align 8
  %38 = icmp eq i64 %37, -1
  br i1 %38, label %.thread69.i, label %40

.thread69.i:                                      ; preds = %.lr.ph55.i
  %39 = getelementptr inbounds i64, ptr %3, i64 %.254.i
  store i64 %.05059.i, ptr %39, align 8
  br label %._crit_edge.loopexit.i

40:                                               ; preds = %.lr.ph55.i
  %41 = icmp slt i64 %37, %.05059.i
  br i1 %41, label %.lr.ph55.i, label %._crit_edge.loopexit.i, !llvm.loop !7

._crit_edge.loopexit.i:                           ; preds = %40, %.thread69.i
  %.pre.i = load i64, ptr %29, align 8
  br label %._crit_edge.i

._crit_edge.i:                                    ; preds = %._crit_edge.loopexit.i, %.lr.ph58.i
  %42 = phi i64 [ %.pre.i, %._crit_edge.loopexit.i ], [ %30, %.lr.ph58.i ]
  %43 = getelementptr inbounds i64, ptr %16, i64 %42
  store i64 %.05059.i, ptr %43, align 8
  %44 = add nsw i64 %.05156.i, 1
  %45 = load i64, ptr %26, align 8
  %46 = icmp slt i64 %44, %45
  br i1 %46, label %.lr.ph58.i, label %.loopexit.i, !llvm.loop !6

_ZN6casadi16SparsityInternal5etreeEPKxPxS3_x.exit: ; preds = %.loopexit.i
  %47 = getelementptr inbounds i64, ptr %16, i64 %11
  %48 = shl nuw i64 %11, 3
  tail call void @llvm.memset.p0.i64(ptr align 8 %16, i8 -1, i64 %48, i1 false)
  br label %.lr.ph46.i

.lr.ph46.i:                                       ; preds = %57, %_ZN6casadi16SparsityInternal5etreeEPKxPxS3_x.exit
  %.145.in.i = phi i64 [ %.145.i, %57 ], [ %11, %_ZN6casadi16SparsityInternal5etreeEPKxPxS3_x.exit ]
  %.145.i = add nsw i64 %.145.in.i, -1
  %49 = getelementptr inbounds i64, ptr %3, i64 %.145.i
  %50 = load i64, ptr %49, align 8
  %.not.i = icmp eq i64 %50, -1
  br i1 %.not.i, label %57, label %51

51:                                               ; preds = %.lr.ph46.i
  %52 = getelementptr inbounds i64, ptr %16, i64 %50
  %53 = load i64, ptr %52, align 8
  %54 = getelementptr inbounds i64, ptr %47, i64 %.145.i
  store i64 %53, ptr %54, align 8
  %55 = load i64, ptr %49, align 8
  %56 = getelementptr inbounds i64, ptr %16, i64 %55
  store i64 %.145.i, ptr %56, align 8
  br label %57

57:                                               ; preds = %51, %.lr.ph46.i
  %58 = icmp ugt i64 %.145.in.i, 1
  br i1 %58, label %.lr.ph46.i, label %.lr.ph49.i.preheader, !llvm.loop !9

.lr.ph49.i.preheader:                             ; preds = %57
  %59 = getelementptr inbounds i64, ptr %47, i64 %11
  br label %.lr.ph49.i

.lr.ph49.i:                                       ; preds = %.lr.ph49.i.preheader, %_ZN6casadi16SparsityInternal13postorder_dfsExxPxPKxS1_S1_.exit.i
  %.248.i = phi i64 [ %81, %_ZN6casadi16SparsityInternal13postorder_dfsExxPxPKxS1_S1_.exit.i ], [ 0, %.lr.ph49.i.preheader ]
  %.03847.i = phi i64 [ %.139.i, %_ZN6casadi16SparsityInternal13postorder_dfsExxPxPKxS1_S1_.exit.i ], [ 0, %.lr.ph49.i.preheader ]
  %60 = getelementptr inbounds i64, ptr %3, i64 %.248.i
  %61 = load i64, ptr %60, align 8
  %62 = icmp eq i64 %61, -1
  br i1 %62, label %63, label %_ZN6casadi16SparsityInternal13postorder_dfsExxPxPKxS1_S1_.exit.i

63:                                               ; preds = %.lr.ph49.i
  store i64 %.248.i, ptr %59, align 8
  br label %64

64:                                               ; preds = %79, %63
  %.023.i.i = phi i64 [ 0, %63 ], [ %.1.i.i, %79 ]
  %.01922.i.i = phi i64 [ %.03847.i, %63 ], [ %.120.i.i, %79 ]
  %65 = getelementptr inbounds i64, ptr %59, i64 %.023.i.i
  %66 = load i64, ptr %65, align 8
  %67 = getelementptr inbounds i64, ptr %16, i64 %66
  %68 = load i64, ptr %67, align 8
  %69 = icmp eq i64 %68, -1
  br i1 %69, label %70, label %74

70:                                               ; preds = %64
  %71 = add nsw i64 %.023.i.i, -1
  %72 = add nsw i64 %.01922.i.i, 1
  %73 = getelementptr inbounds i64, ptr %8, i64 %.01922.i.i
  store i64 %66, ptr %73, align 8
  br label %79

74:                                               ; preds = %64
  %75 = getelementptr inbounds i64, ptr %47, i64 %68
  %76 = load i64, ptr %75, align 8
  store i64 %76, ptr %67, align 8
  %77 = add nuw nsw i64 %.023.i.i, 1
  %78 = getelementptr inbounds i64, ptr %59, i64 %77
  store i64 %68, ptr %78, align 8
  br label %79

79:                                               ; preds = %74, %70
  %.120.i.i = phi i64 [ %72, %70 ], [ %.01922.i.i, %74 ]
  %.1.i.i = phi i64 [ %71, %70 ], [ %77, %74 ]
  %80 = icmp sgt i64 %.1.i.i, -1
  br i1 %80, label %64, label %_ZN6casadi16SparsityInternal13postorder_dfsExxPxPKxS1_S1_.exit.i, !llvm.loop !8

_ZN6casadi16SparsityInternal13postorder_dfsExxPxPKxS1_S1_.exit.i: ; preds = %79, %.lr.ph49.i
  %.139.i = phi i64 [ %.03847.i, %.lr.ph49.i ], [ %.120.i.i, %79 ]
  %81 = add nuw nsw i64 %.248.i, 1
  %exitcond.not.i25 = icmp eq i64 %81, %11
  br i1 %exitcond.not.i25, label %_ZN6casadi16SparsityInternal9postorderEPKxxPxS3_.exit, label %.lr.ph49.i, !llvm.loop !10

_ZN6casadi16SparsityInternal9postorderEPKxxPxS3_.exit: ; preds = %_ZN6casadi16SparsityInternal13postorder_dfsExxPxPKxS1_S1_.exit.i, %_ZN6casadi16SparsityInternal5etreeEPKxPxS3_x.exit.thread
  %82 = phi ptr [ %20, %_ZN6casadi16SparsityInternal5etreeEPKxPxS3_x.exit.thread ], [ %47, %_ZN6casadi16SparsityInternal13postorder_dfsExxPxPKxS1_S1_.exit.i ]
  %83 = tail call noundef i64 @_ZN6casadi16SparsityInternal9qr_countsEPKxS2_S2_PxS3_(ptr noundef %1, ptr noundef %3, ptr noundef %8, ptr noundef %16, ptr noundef %82)
  store i64 %83, ptr %7, align 8
  %84 = tail call noundef i64 @_ZN6casadi16SparsityInternal6qr_nnzEPKxPxS3_S2_S3_S3_(ptr noundef nonnull %0, ptr noundef %4, ptr noundef %2, ptr noundef %3, ptr noundef %5, ptr noundef %16), !range !29
  store i64 %84, ptr %6, align 8
  ret void
}